; Function Attrs: nounwind uwtable
define hidden range(i32 0, 2) i32 @uv__iou_fs_close(ptr noundef %0, ptr noundef %1) local_unnamed_addr #0 {
  %3 = tail call i32 @uv__kernel_version()
  %4 = icmp slt i32 %3, 393472
  br i1 %4, label %uv__iou_submit.exit, label %5

5:                                                ; preds = %2
  %6 = getelementptr inbounds nuw i8, ptr %0, i64 40
  %7 = load ptr, ptr %6, align 8
  %8 = getelementptr inbounds nuw i8, ptr %7, i64 320
  %9 = tail call fastcc ptr @uv__iou_get_sqe(ptr noundef nonnull %8, ptr noundef %0, ptr noundef %1)
  %10 = icmp eq ptr %9, null
  br i1 %10, label %uv__iou_submit.exit, label %11

11:                                               ; preds = %5
  %12 = getelementptr inbounds nuw i8, ptr %1, i64 280
  %13 = load i32, ptr %12, align 8
  %14 = getelementptr inbounds nuw i8, ptr %9, i64 4
  store i32 %13, ptr %14, align 4
  store i8 19, ptr %9, align 8
  %15 = getelementptr inbounds nuw i8, ptr %7, i64 328
  %16 = load ptr, ptr %15, align 8
  %17 = load i32, ptr %16, align 4
  %18 = add i32 %17, 1
  store atomic i32 %18, ptr %16 release, align 4
  %19 = getelementptr inbounds nuw i8, ptr %7, i64 344
  %20 = load ptr, ptr %19, align 8
  %21 = load atomic i32, ptr %20 acquire, align 4
  %22 = and i32 %21, 1
  %.not.i = icmp eq i32 %22, 0
  br i1 %.not.i, label %uv__iou_submit.exit, label %23

23:                                               ; preds = %11
  %24 = getelementptr inbounds nuw i8, ptr %7, i64 432
  %25 = load i32, ptr %24, align 8
  %26 = tail call i64 (i64, ...) @syscall(i64 noundef 426, i32 noundef %25, i32 noundef 0, i32 noundef 0, i32 noundef 2, ptr noundef null, i64 noundef 0) #17
  %27 = and i64 %26, 4294967295
  %.not6.i = icmp eq i64 %27, 0
  br i1 %.not6.i, label %uv__iou_submit.exit, label %28

28:                                               ; preds = %23
  %29 = tail call ptr @__errno_location() #19
  %30 = load i32, ptr %29, align 4
  %.not7.i = icmp eq i32 %30, 130
  br i1 %.not7.i, label %uv__iou_submit.exit, label %31

31:                                               ; preds = %28
  tail call void @perror(ptr noundef nonnull @.str.25) #21
  br label %uv__iou_submit.exit

uv__iou_submit.exit:                              ; preds = %31, %28, %23, %11, %5, %2
  %.0 = phi i32 [ 0, %2 ], [ 0, %5 ], [ 1, %11 ], [ 1, %23 ], [ 1, %28 ], [ 1, %31 ]
  ret i32 %.0
}